target datalayout = "e-m:e-p270:32:32-p271:32:32-p272:64:64-i64:64-i128:128-f80:128-n8:16:32:64-S128"
target triple = "x86_64-pc-linux-gnu"

@line = dso_local global i32 1, align 4
@filename = dso_local global ptr null, align 8
@stderr = external global ptr, align 8
@.str.82 = private unnamed_addr constant [8 x i8] c"%s:%d: \00", align 1

; Function Attrs: mustprogress nounwind uwtable
define internal void @_ZL5errorIJPKcPcEEvS1_DpT_(ptr noundef %0, ptr noundef %1, ptr noundef %2) #1 {
  %4 = alloca ptr, align 8
  %5 = alloca ptr, align 8
  %6 = alloca ptr, align 8
  store ptr %0, ptr %4, align 8, !tbaa !12
  store ptr %1, ptr %5, align 8, !tbaa !12
  store ptr %2, ptr %6, align 8, !tbaa !12
  %7 = load ptr, ptr @stderr, align 8, !tbaa !56
  %8 = load ptr, ptr @filename, align 8, !tbaa !12
  %9 = load i32, ptr @line, align 4, !tbaa !4
  %10 = call i32 (ptr, ptr, ...) @fprintf(ptr noundef %7, ptr noundef @.str.82, ptr noundef %8, i32 noundef %9) #20
  %11 = load ptr, ptr @stderr, align 8, !tbaa !56
  %12 = load ptr, ptr %4, align 8, !tbaa !12
  %13 = load ptr, ptr %5, align 8, !tbaa !12
  %14 = load ptr, ptr %6, align 8, !tbaa !12
  %15 = call i32 (ptr, ptr, ...) @fprintf(ptr noundef %11, ptr noundef %12, ptr noundef %13, ptr noundef %14) #20
  call void @exit(i32 noundef 1) #23
  unreachable
}