; Function Attrs: cold mustprogress nofree norecurse noreturn nounwind uwtable
define internal fastcc void @_ZL5errorIJPKcPcEEvS1_DpT_(ptr noundef %0, ptr noundef %1) unnamed_addr #4 {
  %3 = load ptr, ptr @stderr, align 8, !tbaa !194
  %4 = load ptr, ptr @filename, align 8, !tbaa !4
  %5 = load i32, ptr @line, align 4, !tbaa !22
  %6 = tail call i32 (ptr, ptr, ...) @fprintf(ptr noundef %3, ptr noundef nonnull @.str.82, ptr noundef %4, i32 noundef %5) #33
  %7 = load ptr, ptr @stderr, align 8, !tbaa !194
  %8 = tail call i32 (ptr, ptr, ...) @fprintf(ptr noundef %7, ptr noundef nonnull @.str.1, ptr noundef %0, ptr noundef %1) #33
  tail call void @exit(i32 noundef 1) #34
  unreachable
}